(dp1
S'OriginalConfig'
p2
ccopy_reg
_reconstructor
p3
(cWMCore.Configuration
Configuration
p4
c__builtin__
object
p5
NtRp6
(dp7
S'Site'
p8
g3
(cWMCore.Configuration
ConfigSection
p9
g5
NtRp10
(dp11
S'_internal_documentation'
p12
S''
sS'_internal_settings'
p13
c__builtin__
set
p14
((lp15
S'storageSite'
p16
atRp17
sS'_internal_name'
p18
g8
sS'_internal_docstrings'
p19
(dp20
sS'_internal_children'
p21
g14
((ltRp22
sg16
S'T3_US_FNALLPC'
p23
sS'_internal_parent_ref'
p24
NsbsS'_internal_sections'
p25
(lp26
S'General'
p27
aS'JobType'
p28
aS'Data'
p29
ag8
asg27
g3
(g9
g5
NtRp30
(dp31
g12
S''
sg13
g14
((lp32
S'workArea'
p33
aS'requestName'
p34
atRp35
sg18
g27
sg19
(dp36
sg21
g14
((ltRp37
sg34
S'JetHT__Run2016B-v1__RAW_272774'
p38
sg24
Nsg33
S'out_crab'
p39
sbsS'_internal_webapps'
p40
(lp41
sS'_internal_components'
p42
(lp43
sg29
g3
(g9
g5
NtRp44
(dp45
S'inputDataset'
p46
S'/JetHT/Run2016B-v1/RAW'
p47
sS'publishDBS'
p48
S'phys03'
p49
sS'publication'
p50
I01
sS'splitting'
p51
S'LumiBased'
p52
sS'unitsPerJob'
p53
I30
sg12
S''
sg13
g14
((lp54
g46
ag48
ag50
ag53
aS'inputDBS'
p55
ag51
aS'runRange'
p56
atRp57
sg18
g29
sg55
S'global'
p58
sg19
(dp59
sg21
g14
((ltRp60
sg24
Nsg56
S'272774'
p61
sbsg28
g3
(g9
g5
NtRp62
(dp63
g12
S''
sg13
g14
((lp64
S'psetName'
p65
aS'pluginName'
p66
atRp67
sg18
g28
sg19
(dp68
sg66
S'Analysis'
p69
sg21
g14
((ltRp70
sg65
S'makeL1Ntuple_cfg.py'
p71
sg24
NsbsbsS'voGroup'
p72
S''
sS'Server'
p73
S'cmsweb.cern.ch'
p74
sS'instance'
p75
S'prod'
p76
sS'RequestName'
p77
S'160807_154628:lkang_crab_JetHT__Run2016B-v1__RAW_272774'
p78
sS'voRole'
p79
S'NULL'
p80
sS'Port'
p81
S''
s.